Certificate:
    Data:
        Version: 3 (0x2)
        Serial Number: 3 (0x3)
    Signature Algorithm: sha1WithRSAEncryption
        Issuer: C=CN, ST=BeiJing, L=BeiJing, O=NOVEL, CN=duli
        Validity
            Not Before: Dec 18 02:13:13 2012 GMT
            Not After : Dec 18 02:13:13 2013 GMT
        Subject: C=CN, ST=BeiJing, O=NOVEL, OU=STV, CN=localhost/emailAddress=duli
        Subject Public Key Info:
            Public Key Algorithm: rsaEncryption
                Public-Key: (1024 bit)
                Modulus:
                    00:9d:2a:42:44:4b:2a:99:b4:a2:27:dd:69:77:c5:
                    a6:e0:53:e6:29:06:22:a1:f2:2c:6b:65:fb:c3:28:
                    dd:13:bf:7c:b9:c1:f1:5b:ea:de:f6:30:bc:06:b1:
                    80:68:fb:b2:2f:26:e2:dd:f2:c1:ff:7b:20:84:1a:
                    37:67:df:08:5d:26:c1:33:a2:3e:2e:b3:4f:b4:47:
                    c8:d2:ef:d4:c9:0d:d6:96:b9:42:5e:b2:0a:f9:47:
                    7d:8d:2a:39:5b:6c:86:52:f7:9c:31:af:bd:20:55:
                    4c:72:53:69:72:4d:d6:79:72:35:be:ba:87:2f:2c:
                    3a:a9:1b:15:5b:7d:5c:96:63
                Exponent: 65537 (0x10001)
        X509v3 extensions:
            X509v3 Basic Constraints: 
                CA:FALSE
            Netscape Comment: 
                OpenSSL Generated Certificate
            X509v3 Subject Key Identifier: 
                72:BC:33:DE:24:4C:01:72:B6:B4:B0:8E:E5:BC:A4:07:71:B4:FA:17
            X509v3 Authority Key Identifier: 
                keyid:C5:9C:73:1F:02:3B:95:7B:B5:5F:2E:3F:07:CD:84:6E:8B:2E:85:EA

    Signature Algorithm: sha1WithRSAEncryption
         b0:96:61:58:ad:fc:da:0c:b4:5c:68:c2:54:bc:e7:0a:60:84:
         b3:43:8d:70:1d:27:26:3a:37:f8:ae:33:77:76:1a:64:5f:78:
         4d:ad:fe:e4:ca:8a:67:71:f5:13:e8:73:00:5d:6d:0b:a6:bc:
         4e:4b:9f:55:91:a2:1d:1f:9c:0f:33:15:4d:df:a0:63:6e:ea:
         cb:30:2e:29:61:00:a6:0f:b5:44:0f:c6:d6:97:ee:31:bd:e2:
         30:d2:da:db:1e:f8:32:ae:e0:cc:03:32:a8:22:fd:3c:66:82:
         75:8a:48:fb:c7:80:33:75:71:d1:5e:b6:14:50:8f:6c:09:43:
         77:d4
-----BEGIN CERTIFICATE-----
MIICpzCCAhCgAwIBAgIBAzANBgkqhkiG9w0BAQUFADBQMQswCQYDVQQGEwJDTjEQ
MA4GA1UECAwHQmVpSmluZzEQMA4GA1UEBwwHQmVpSmluZzEOMAwGA1UECgwFTk9W
RUwxDTALBgNVBAMMBGR1bGkwHhcNMTIxMjE4MDIxMzEzWhcNMTMxMjE4MDIxMzEz
WjBmMQswCQYDVQQGEwJDTjEQMA4GA1UECAwHQmVpSmluZzEOMAwGA1UECgwFTk9W
RUwxDDAKBgNVBAsMA1NUVjESMBAGA1UEAwwJbG9jYWxob3N0MRMwEQYJKoZIhvcN
AQkBFgRkdWxpMIGfMA0GCSqGSIb3DQEBAQUAA4GNADCBiQKBgQCdKkJESyqZtKIn
3Wl3xabgU+YpBiKh8ixrZfvDKN0Tv3y5wfFb6t72MLwGsYBo+7IvJuLd8sH/eyCE
Gjdn3whdJsEzoj4us0+0R8jS79TJDdaWuUJesgr5R32NKjlbbIZS95wxr70gVUxy
U2lyTdZ5cjW+uocvLDqpGxVbfVyWYwIDAQABo3sweTAJBgNVHRMEAjAAMCwGCWCG
SAGG+EIBDQQfFh1PcGVuU1NMIEdlbmVyYXRlZCBDZXJ0aWZpY2F0ZTAdBgNVHQ4E
FgQUcrwz3iRMAXK2tLCO5bykB3G0+hcwHwYDVR0jBBgwFoAUxZxzHwI7lXu1Xy4/
B82EbosuheowDQYJKoZIhvcNAQEFBQADgYEAsJZhWK382gy0XGjCVLznCmCEs0ON
cB0nJjo3+K4zd3YaZF94Ta3+5MqKZ3H1E+hzAF1tC6a8TkufVZGiHR+cDzMVTd+g
Y27qyzAuKWEApg+1RA/G1pfuMb3iMNLa2x74Mq7gzAMyqCL9PGaCdYpI+8eAM3Vx
0V62FFCPbAlDd9Q=
-----END CERTIFICATE-----
