Certificate:
    Data:
        Version: 3 (0x2)
        Serial Number: 1 (0x1)
    Signature Algorithm: sha1WithRSAEncryption
        Issuer: C=CN, ST=BeiJing, L=BeiJing, O=NOVEL, CN=CA
        Validity
            Not Before: Dec 18 01:45:26 2012 GMT
            Not After : Dec 18 01:45:26 2013 GMT
        Subject: C=CN, ST=BeiJing, O=NOVEL, CN=localhost
        Subject Public Key Info:
            Public Key Algorithm: rsaEncryption
                Public-Key: (1024 bit)
                Modulus:
                    00:aa:3d:21:b6:2f:d4:72:37:da:6f:39:e4:fe:12:
                    db:ac:cc:cd:c3:61:7d:70:f5:2b:f8:33:01:01:58:
                    19:56:49:77:f0:c4:9c:36:f8:27:e4:e9:ed:0b:17:
                    bf:30:94:83:9a:7d:d7:2f:42:f2:69:76:f7:db:d7:
                    63:15:a1:f5:40:29:99:69:cd:36:85:8b:78:2a:4e:
                    eb:b1:be:3c:c0:81:68:67:60:3f:2c:c9:2e:71:ab:
                    4b:51:82:96:ca:a1:e4:dd:23:e2:33:43:6b:ea:01:
                    9a:d2:af:73:5b:07:7a:78:c2:33:a8:03:e3:2b:58:
                    0c:a8:6d:8e:05:89:a6:10:99
                Exponent: 65537 (0x10001)
        X509v3 extensions:
            X509v3 Basic Constraints: 
                CA:FALSE
            Netscape Comment: 
                OpenSSL Generated Certificate
            X509v3 Subject Key Identifier: 
                68:D7:3C:F6:C0:91:34:F6:C1:96:7B:CB:3B:DF:DA:2C:93:B6:9A:3E
            X509v3 Authority Key Identifier: 
                keyid:ED:52:9F:81:3B:BC:81:4B:DA:EA:C8:C0:4D:3C:FA:85:F0:66:1D:E2

    Signature Algorithm: sha1WithRSAEncryption
         29:50:c4:05:87:fa:c4:62:04:a1:6d:ce:71:58:e1:e5:70:5e:
         d2:ed:65:a0:13:fa:d6:21:be:8f:83:6e:9c:84:e7:87:5c:af:
         96:83:d3:5b:ea:1e:d1:46:c4:d3:ec:51:89:0c:af:98:04:26:
         f1:67:98:2d:4e:e9:d9:8e:ee:91:4b:57:b5:d1:9f:b9:0c:43:
         51:0e:31:25:11:6e:da:17:17:6d:83:6c:c7:18:f0:c8:9f:d1:
         ac:de:39:d7:f9:42:50:fa:da:74:5c:63:a1:af:c0:2b:51:2b:
         73:fb:4f:42:5d:07:e4:03:a2:6b:9e:88:97:9e:e9:44:30:9b:
         e9:b1
-----BEGIN CERTIFICATE-----
MIICgjCCAeugAwIBAgIBATANBgkqhkiG9w0BAQUFADBOMQswCQYDVQQGEwJDTjEQ
MA4GA1UECAwHQmVpSmluZzEQMA4GA1UEBwwHQmVpSmluZzEOMAwGA1UECgwFTk9W
RUwxCzAJBgNVBAMMAkNBMB4XDTEyMTIxODAxNDUyNloXDTEzMTIxODAxNDUyNlow
QzELMAkGA1UEBhMCQ04xEDAOBgNVBAgMB0JlaUppbmcxDjAMBgNVBAoMBU5PVkVM
MRIwEAYDVQQDDAlsb2NhbGhvc3QwgZ8wDQYJKoZIhvcNAQEBBQADgY0AMIGJAoGB
AKo9IbYv1HI32m855P4S26zMzcNhfXD1K/gzAQFYGVZJd/DEnDb4J+Tp7QsXvzCU
g5p91y9C8ml299vXYxWh9UApmWnNNoWLeCpO67G+PMCBaGdgPyzJLnGrS1GClsqh
5N0j4jNDa+oBmtKvc1sHenjCM6gD4ytYDKhtjgWJphCZAgMBAAGjezB5MAkGA1Ud
EwQCMAAwLAYJYIZIAYb4QgENBB8WHU9wZW5TU0wgR2VuZXJhdGVkIENlcnRpZmlj
YXRlMB0GA1UdDgQWBBRo1zz2wJE09sGWe8s739osk7aaPjAfBgNVHSMEGDAWgBTt
Up+BO7yBS9rqyMBNPPqF8GYd4jANBgkqhkiG9w0BAQUFAAOBgQApUMQFh/rEYgSh
bc5xWOHlcF7S7WWgE/rWIb6Pg26chOeHXK+Wg9Nb6h7RRsTT7FGJDK+YBCbxZ5gt
TunZju6RS1e10Z+5DENRDjElEW7aFxdtg2zHGPDIn9Gs3jnX+UJQ+tp0XGOhr8Ar
UStz+09CXQfkA6JrnoiXnulEMJvpsQ==
-----END CERTIFICATE-----
