Certificate:
    Data:
        Version: 3 (0x2)
        Serial Number: 2 (0x2)
    Signature Algorithm: sha1WithRSAEncryption
        Issuer: C=CN, ST=BeiJing, L=BeiJing, O=NOVEL, CN=duli
        Validity
            Not Before: Dec 18 02:10:14 2012 GMT
            Not After : Dec 18 02:10:14 2013 GMT
        Subject: C=CN, ST=BeiJing, O=NOVEL, OU=STV, CN=localhost/emailAddress=duli@novel-supertv.com
        Subject Public Key Info:
            Public Key Algorithm: rsaEncryption
                Public-Key: (1024 bit)
                Modulus:
                    00:ce:fc:76:30:14:97:03:26:87:5d:81:9b:9a:7d:
                    46:6c:8b:7f:d3:61:67:fa:dc:df:24:b4:8a:e4:7a:
                    da:df:59:9b:33:86:59:22:2a:8b:5f:ae:d1:ba:63:
                    5d:5e:ab:ec:b5:06:bd:8e:5b:02:ea:13:36:5f:43:
                    71:32:c5:15:c0:b5:12:20:15:3f:fa:c1:dd:8c:70:
                    f7:a6:5b:e4:c6:3d:18:7e:98:27:49:1f:19:d6:cd:
                    54:e5:21:dc:12:e6:f6:c8:cf:a0:6c:06:67:35:d5:
                    0f:55:74:4e:dc:81:ef:61:2f:33:71:61:83:03:8f:
                    44:5a:72:ee:0f:94:8b:e7:97
                Exponent: 65537 (0x10001)
        X509v3 extensions:
            X509v3 Basic Constraints: 
                CA:FALSE
            Netscape Comment: 
                OpenSSL Generated Certificate
            X509v3 Subject Key Identifier: 
                65:BA:1C:DA:74:53:F2:33:B4:D5:F7:39:7B:88:4C:04:FC:95:59:D2
            X509v3 Authority Key Identifier: 
                keyid:C5:9C:73:1F:02:3B:95:7B:B5:5F:2E:3F:07:CD:84:6E:8B:2E:85:EA

    Signature Algorithm: sha1WithRSAEncryption
         31:4f:03:f5:25:e8:1f:dc:fa:a5:f6:92:6e:b3:26:3e:cb:ae:
         dc:f5:c6:56:e1:b6:78:46:79:70:1b:f7:6d:46:ce:65:4b:f3:
         f7:7f:5a:0f:e8:94:f8:25:f2:f6:fc:41:3d:b3:1a:ed:d4:e5:
         a4:b9:a6:ff:16:c0:8f:90:47:e0:34:3b:20:b8:3b:45:00:2a:
         91:4b:03:8c:20:a1:5a:76:c9:a5:57:79:a7:d2:c1:09:06:ce:
         6e:47:15:28:74:d5:59:f5:32:d6:10:74:11:10:0a:8c:94:56:
         d2:df:83:33:21:fb:97:3c:b9:15:d1:9e:73:e8:e7:45:33:22:
         4e:75
-----BEGIN CERTIFICATE-----
MIICuTCCAiKgAwIBAgIBAjANBgkqhkiG9w0BAQUFADBQMQswCQYDVQQGEwJDTjEQ
MA4GA1UECAwHQmVpSmluZzEQMA4GA1UEBwwHQmVpSmluZzEOMAwGA1UECgwFTk9W
RUwxDTALBgNVBAMMBGR1bGkwHhcNMTIxMjE4MDIxMDE0WhcNMTMxMjE4MDIxMDE0
WjB4MQswCQYDVQQGEwJDTjEQMA4GA1UECAwHQmVpSmluZzEOMAwGA1UECgwFTk9W
RUwxDDAKBgNVBAsMA1NUVjESMBAGA1UEAwwJbG9jYWxob3N0MSUwIwYJKoZIhvcN
AQkBFhZkdWxpQG5vdmVsLXN1cGVydHYuY29tMIGfMA0GCSqGSIb3DQEBAQUAA4GN
ADCBiQKBgQDO/HYwFJcDJoddgZuafUZsi3/TYWf63N8ktIrketrfWZszhlkiKotf
rtG6Y11eq+y1Br2OWwLqEzZfQ3EyxRXAtRIgFT/6wd2McPemW+TGPRh+mCdJHxnW
zVTlIdwS5vbIz6BsBmc11Q9VdE7cge9hLzNxYYMDj0Racu4PlIvnlwIDAQABo3sw
eTAJBgNVHRMEAjAAMCwGCWCGSAGG+EIBDQQfFh1PcGVuU1NMIEdlbmVyYXRlZCBD
ZXJ0aWZpY2F0ZTAdBgNVHQ4EFgQUZboc2nRT8jO01fc5e4hMBPyVWdIwHwYDVR0j
BBgwFoAUxZxzHwI7lXu1Xy4/B82EbosuheowDQYJKoZIhvcNAQEFBQADgYEAMU8D
9SXoH9z6pfaSbrMmPsuu3PXGVuG2eEZ5cBv3bUbOZUvz939aD+iU+CXy9vxBPbMa
7dTlpLmm/xbAj5BH4DQ7ILg7RQAqkUsDjCChWnbJpVd5p9LBCQbObkcVKHTVWfUy
1hB0ERAKjJRW0t+DMyH7lzy5FdGec+jnRTMiTnU=
-----END CERTIFICATE-----
