Certificate:
    Data:
        Version: 3 (0x2)
        Serial Number: 4 (0x4)
    Signature Algorithm: sha1WithRSAEncryption
        Issuer: C=CN, ST=BeiJing, L=BeiJing, O=NOVEL, CN=duli
        Validity
            Not Before: Dec 18 02:23:01 2012 GMT
            Not After : Dec 18 02:23:01 2013 GMT
        Subject: C=CN, ST=BeiJing, O=NOVEL, OU=STV, CN=localhost
        Subject Public Key Info:
            Public Key Algorithm: rsaEncryption
                Public-Key: (1024 bit)
                Modulus:
                    00:9e:16:b8:1e:14:8b:27:a8:f6:81:b3:1e:89:14:
                    fa:24:a1:ff:7c:e3:bb:2a:78:8a:37:e8:61:59:58:
                    7a:7b:e1:43:ba:46:eb:97:bf:24:81:d0:4f:c8:4a:
                    97:63:04:ad:44:58:f8:f9:a0:93:92:97:05:01:a9:
                    97:64:b2:ad:ce:79:29:28:94:e6:36:95:cb:24:1b:
                    c3:48:28:bc:be:e4:b6:7f:ae:7e:ee:39:90:f7:cd:
                    b9:14:4d:b4:d1:a8:a1:d3:ff:9f:21:10:c8:65:61:
                    0a:bd:42:58:f4:c9:48:4e:42:c2:1b:4f:19:e3:2a:
                    aa:96:55:29:51:06:c3:f8:0f
                Exponent: 65537 (0x10001)
        X509v3 extensions:
            X509v3 Basic Constraints: 
                CA:FALSE
            Netscape Comment: 
                OpenSSL Generated Certificate
            X509v3 Subject Key Identifier: 
                E9:CA:B9:8C:60:ED:2F:19:13:D8:DD:84:E3:EC:13:CE:AE:BB:85:38
            X509v3 Authority Key Identifier: 
                keyid:C5:9C:73:1F:02:3B:95:7B:B5:5F:2E:3F:07:CD:84:6E:8B:2E:85:EA

    Signature Algorithm: sha1WithRSAEncryption
         88:f6:87:a8:9d:33:4f:ac:38:5c:76:52:ca:9f:a8:a9:54:b6:
         68:41:12:28:31:eb:23:97:cf:27:51:4d:43:43:10:cc:ec:97:
         f3:c5:02:2f:62:84:45:9e:a0:83:c9:3e:5d:86:cf:23:a6:78:
         8b:3a:91:37:89:a2:84:31:9f:e2:31:a5:5d:84:c9:88:9b:58:
         0d:19:c5:89:a3:e1:9d:38:94:d8:3f:14:1e:bd:b4:22:1e:78:
         e2:4b:95:31:35:5c:e0:0d:62:3c:42:48:dd:0c:87:51:58:ec:
         90:f4:62:a9:eb:ee:49:ec:00:50:ad:e2:30:1c:26:c6:14:ae:
         45:4e
-----BEGIN CERTIFICATE-----
MIICkjCCAfugAwIBAgIBBDANBgkqhkiG9w0BAQUFADBQMQswCQYDVQQGEwJDTjEQ
MA4GA1UECAwHQmVpSmluZzEQMA4GA1UEBwwHQmVpSmluZzEOMAwGA1UECgwFTk9W
RUwxDTALBgNVBAMMBGR1bGkwHhcNMTIxMjE4MDIyMzAxWhcNMTMxMjE4MDIyMzAx
WjBRMQswCQYDVQQGEwJDTjEQMA4GA1UECAwHQmVpSmluZzEOMAwGA1UECgwFTk9W
RUwxDDAKBgNVBAsMA1NUVjESMBAGA1UEAwwJbG9jYWxob3N0MIGfMA0GCSqGSIb3
DQEBAQUAA4GNADCBiQKBgQCeFrgeFIsnqPaBsx6JFPokof9847sqeIo36GFZWHp7
4UO6RuuXvySB0E/ISpdjBK1EWPj5oJOSlwUBqZdksq3OeSkolOY2lcskG8NIKLy+
5LZ/rn7uOZD3zbkUTbTRqKHT/58hEMhlYQq9Qlj0yUhOQsIbTxnjKqqWVSlRBsP4
DwIDAQABo3sweTAJBgNVHRMEAjAAMCwGCWCGSAGG+EIBDQQfFh1PcGVuU1NMIEdl
bmVyYXRlZCBDZXJ0aWZpY2F0ZTAdBgNVHQ4EFgQU6cq5jGDtLxkT2N2E4+wTzq67
hTgwHwYDVR0jBBgwFoAUxZxzHwI7lXu1Xy4/B82EbosuheowDQYJKoZIhvcNAQEF
BQADgYEAiPaHqJ0zT6w4XHZSyp+oqVS2aEESKDHrI5fPJ1FNQ0MQzOyX88UCL2KE
RZ6gg8k+XYbPI6Z4izqRN4mihDGf4jGlXYTJiJtYDRnFiaPhnTiU2D8UHr20Ih54
4kuVMTVc4A1iPEJI3QyHUVjskPRiqevuSewAUK3iMBwmxhSuRU4=
-----END CERTIFICATE-----
